target datalayout = "e-m:e-p270:32:32-p271:32:32-p272:64:64-i64:64-i128:128-f80:128-n8:16:32:64-S128"
target triple = "x86_64-pc-linux-gnu"

%struct.MemoryRegion = type { %struct.Object, i8, i8, i8, i8, i8, i8, i8, i8, i8, i8, ptr, ptr, ptr, ptr, ptr, ptr, i32, i128, i64, ptr, i64, i8, i8, i8, i8, ptr, i64, i32, %union.anon, %union.anon.0, %union.anon.1, ptr, i32, ptr, ptr, i8 }
%struct.Object = type { ptr, ptr, ptr, i32, ptr }
%union.anon = type { %struct.QTailQLink }
%struct.QTailQLink = type { ptr, ptr }
%union.anon.0 = type { %struct.QTailQLink }
%union.anon.1 = type { %struct.QTailQLink }
%struct.VFIOPCIDevice = type { %struct.PCIDevice, %struct.VFIODevice, %struct.VFIOINTx, i32, ptr, i64, i32, i64, ptr, i32, ptr, ptr, i32, i32, [6 x %struct.VFIOBAR], ptr, ptr, %struct.PCIHostDeviceAddress, %struct.QemuUUID, %struct.EventNotifier, %struct.EventNotifier, ptr, i32, i32, i32, i32, i32, i32, i32, i32, i32, i32, i32, i8, i8, i8, i8, i8, i8, i8, i8, i8, i8, i8, i8, i8, i8, i32, i8, i8, i8, ptr, %struct.Notifier }
%struct.PCIDevice = type { %struct.DeviceState, i8, i8, ptr, ptr, ptr, ptr, ptr, i32, %struct.PCIReqIDCache, [64 x i8], [7 x %struct.PCIIORegion], %struct.AddressSpace, %struct.MemoryRegion, %struct.MemoryRegion, ptr, ptr, [3 x ptr], i8, i8, i32, i8, i32, ptr, ptr, ptr, ptr, ptr, ptr, %struct.MemoryRegion, %struct.MemoryRegion, %struct.MemoryRegion, ptr, i8, i32, i8, %struct.PCIExpressDevice, ptr, ptr, i32, i8, %struct.MemoryRegion, i32, ptr, ptr, ptr, ptr, i16, %struct.DOECap, ptr, i32, i32 }
%struct.DeviceState = type { %struct.Object, ptr, ptr, i8, i8, i64, i32, i8, ptr, %struct.NamedGPIOListHead, %struct.NamedClockListHead, %struct.BusStateHead, i32, i32, i32, %struct.ResettableState, ptr, %struct.MemReentrancyGuard }
%struct.NamedGPIOListHead = type { ptr }
%struct.NamedClockListHead = type { ptr }
%struct.BusStateHead = type { ptr }
%struct.ResettableState = type { i32, i8, i8 }
%struct.MemReentrancyGuard = type { i8 }
%struct.PCIReqIDCache = type { ptr, i32 }
%struct.PCIIORegion = type { i64, i64, i8, ptr, ptr }
%struct.AddressSpace = type { %struct.rcu_head, ptr, ptr, ptr, i32, i32, ptr, %union.anon.4, %union.anon.5, i64, i64, %struct.QemuMutex, %struct.anon.6 }
%struct.rcu_head = type { ptr, ptr }
%union.anon.4 = type { %struct.QTailQLink }
%union.anon.5 = type { %struct.QTailQLink }
%struct.QemuMutex = type { %union.pthread_mutex_t, i8 }
%union.pthread_mutex_t = type { %struct.__pthread_mutex_s }
%struct.__pthread_mutex_s = type { i32, i32, i32, i32, i32, i16, i16, %struct.__pthread_internal_list }
%struct.__pthread_internal_list = type { ptr, ptr }
%struct.anon.6 = type { ptr }
%struct.PCIExpressDevice = type { i8, i8, i8, i16, %struct.PCIEAERLog, i16, i16, i16, %struct.PCIESriovPF, %struct.PCIESriovVF }
%struct.PCIEAERLog = type { i16, i16, ptr }
%struct.PCIESriovPF = type { i16, [7 x i8], ptr, ptr }
%struct.PCIESriovVF = type { ptr, i16 }
%struct.DOECap = type { ptr, i16, %struct.anon.7, %struct.anon.8, %struct.anon.9, ptr, ptr, i32, i32, i32, ptr, i16, i32 }
%struct.anon.7 = type { i8, i16 }
%struct.anon.8 = type { i8, i8, i8 }
%struct.anon.9 = type { i8, i8, i8, i8 }
%struct.VFIODevice = type { %struct.anon.10, %struct.anon.11, %struct.anon.12, ptr, ptr, ptr, ptr, ptr, i32, i32, i8, i8, i8, i8, i8, i32, i8, ptr, i32, i32, i32, ptr, ptr, i32, i32, i8, i8, i8, ptr, i32, ptr, ptr, %struct.anon.13 }
%struct.anon.10 = type { ptr, ptr }
%struct.anon.11 = type { ptr, ptr }
%struct.anon.12 = type { ptr, ptr }
%struct.anon.13 = type { ptr, ptr }
%struct.VFIOINTx = type { i8, i8, i8, %struct.EventNotifier, %struct.EventNotifier, %struct.PCIINTxRoute, i32, ptr }
%struct.PCIINTxRoute = type { i32, i32 }
%struct.VFIOBAR = type { %struct.VFIORegion, ptr, i64, i8, i8, i8, %struct.anon.14 }
%struct.VFIORegion = type { ptr, i64, ptr, i64, i32, i32, ptr, i8 }
%struct.anon.14 = type { ptr }
%struct.PCIHostDeviceAddress = type { i32, i32, i32, i32 }
%struct.QemuUUID = type { %union.anon.15 }
%union.anon.15 = type { %struct.anon.16 }
%struct.anon.16 = type { i32, i16, i16, i8, i8, [6 x i8] }
%struct.EventNotifier = type { i32, i32, i8 }
%struct.Notifier = type { ptr, %struct.anon.17 }
%struct.anon.17 = type { ptr, ptr }

; Function Attrs: inlinehint nounwind sspstrong uwtable
define internal i32 @lduw_he_p(ptr noundef %0) #3 {
  %2 = alloca ptr, align 8
  %3 = alloca i16, align 2
  store ptr %0, ptr %2, align 8
  call void @llvm.lifetime.start.p0(i64 2, ptr %3) #19
  store i16 0, ptr %3, align 2, !annotation !4
  %4 = load ptr, ptr %2, align 8
  call void @llvm.memcpy.p0.p0.i64(ptr align 2 %3, ptr align 1 %4, i64 2, i1 false)
  %5 = load i16, ptr %3, align 2
  %6 = zext i16 %5 to i32
  call void @llvm.lifetime.end.p0(i64 2, ptr %3) #19
  ret i32 %6
}

; Function Attrs: inlinehint nounwind sspstrong uwtable
define internal i32 @lduw_le_p(ptr noundef %0) #3 {
  %2 = alloca ptr, align 8
  store ptr %0, ptr %2, align 8
  %3 = load ptr, ptr %2, align 8
  %4 = call i32 @lduw_he_p(ptr noundef %3)
  %5 = trunc i32 %4 to i16
  %6 = zext i16 %5 to i32
  ret i32 %6
}

; Function Attrs: inlinehint nounwind sspstrong uwtable
define internal i64 @qemu_real_host_page_size() #3 {
  %1 = call i32 @getpagesize() #21
  %2 = sext i32 %1 to i64
  ret i64 %2
}

; Function Attrs: inlinehint nounwind sspstrong uwtable
define internal zeroext i16 @pci_get_word(ptr noundef %0) #3 {
  %2 = alloca ptr, align 8
  store ptr %0, ptr %2, align 8
  %3 = load ptr, ptr %2, align 8
  %4 = call i32 @lduw_le_p(ptr noundef %3)
  %5 = trunc i32 %4 to i16
  ret i16 %5
}

; Function Attrs: nounwind sspstrong uwtable
define internal i32 @vfio_pci_load_config(ptr noundef %0, ptr noundef %1) #0 {
  %3 = alloca i32, align 4
  %4 = alloca ptr, align 8
  %5 = alloca ptr, align 8
  %6 = alloca ptr, align 8
  %7 = alloca ptr, align 8
  %8 = alloca ptr, align 8
  %9 = alloca ptr, align 8
  %10 = alloca [6 x i64], align 16
  %11 = alloca i32, align 4
  %12 = alloca i32, align 4
  %13 = alloca i32, align 4
  store ptr %0, ptr %4, align 8
  store ptr %1, ptr %5, align 8
  call void @llvm.lifetime.start.p0(i64 8, ptr %6) #19
  call void @llvm.lifetime.start.p0(i64 8, ptr %7) #19
  %14 = load ptr, ptr %4, align 8
  store ptr %14, ptr %7, align 8
  %15 = load ptr, ptr %7, align 8
  %16 = getelementptr inbounds i8, ptr %15, i64 -2752
  store ptr %16, ptr %8, align 8
  call void @llvm.lifetime.end.p0(i64 8, ptr %7) #19
  %17 = load ptr, ptr %8, align 8
  store ptr %17, ptr %6, align 8
  call void @llvm.lifetime.start.p0(i64 8, ptr %9) #19
  %18 = load ptr, ptr %6, align 8
  %19 = getelementptr inbounds nuw %struct.VFIOPCIDevice, ptr %18, i32 0, i32 0
  store ptr %19, ptr %9, align 8
  call void @llvm.lifetime.start.p0(i64 48, ptr %10) #19
  call void @llvm.memset.p0.i64(ptr align 16 %10, i8 0, i64 48, i1 false), !annotation !4
  call void @llvm.lifetime.start.p0(i64 4, ptr %11) #19
  store i32 0, ptr %11, align 4, !annotation !4
  call void @llvm.lifetime.start.p0(i64 4, ptr %12) #19
  store i32 0, ptr %12, align 4, !annotation !4
  store i32 0, ptr %11, align 4
  br label %20

20:                                               ; preds = %34, %2
  %21 = load i32, ptr %11, align 4
  %22 = icmp slt i32 %21, 6
  br i1 %22, label %23, label %37

23:                                               ; preds = %20
  %24 = load ptr, ptr %9, align 8
  %25 = getelementptr inbounds nuw %struct.PCIDevice, ptr %24, i32 0, i32 11
  %26 = load i32, ptr %11, align 4
  %27 = sext i32 %26 to i64
  %28 = getelementptr inbounds [7 x %struct.PCIIORegion], ptr %25, i64 0, i64 %27
  %29 = getelementptr inbounds nuw %struct.PCIIORegion, ptr %28, i32 0, i32 0
  %30 = load i64, ptr %29, align 8
  %31 = load i32, ptr %11, align 4
  %32 = sext i32 %31 to i64
  %33 = getelementptr inbounds [6 x i64], ptr %10, i64 0, i64 %32
  store i64 %30, ptr %33, align 8
  br label %34

34:                                               ; preds = %23
  %35 = load i32, ptr %11, align 4
  %36 = add i32 %35, 1
  store i32 %36, ptr %11, align 4
  br label %20, !llvm.loop !20

37:                                               ; preds = %20
  %38 = load ptr, ptr %5, align 8
  %39 = load ptr, ptr %6, align 8
  %40 = call i32 @vmstate_load_state(ptr noundef %38, ptr noundef @vmstate_vfio_pci_config, ptr noundef %39, i32 noundef 1)
  store i32 %40, ptr %12, align 4
  %41 = load i32, ptr %12, align 4
  %42 = icmp ne i32 %41, 0
  br i1 %42, label %43, label %45

43:                                               ; preds = %37
  %44 = load i32, ptr %12, align 4
  store i32 %44, ptr %3, align 4
  store i32 1, ptr %13, align 4
  br label %111

45:                                               ; preds = %37
  %46 = load ptr, ptr %9, align 8
  %47 = load ptr, ptr %9, align 8
  %48 = getelementptr inbounds nuw %struct.PCIDevice, ptr %47, i32 0, i32 3
  %49 = load ptr, ptr %48, align 16
  %50 = getelementptr inbounds i8, ptr %49, i64 4
  %51 = call zeroext i16 @pci_get_word(ptr noundef %50)
  %52 = zext i16 %51 to i32
  call void @vfio_pci_write_config(ptr noundef %46, i32 noundef 4, i32 noundef %52, i32 noundef 2)
  store i32 0, ptr %11, align 4
  br label %53

53:                                               ; preds = %94, %45
  %54 = load i32, ptr %11, align 4
  %55 = icmp slt i32 %54, 6
  br i1 %55, label %56, label %97

56:                                               ; preds = %53
  %57 = load i32, ptr %11, align 4
  %58 = sext i32 %57 to i64
  %59 = getelementptr inbounds [6 x i64], ptr %10, i64 0, i64 %58
  %60 = load i64, ptr %59, align 8
  %61 = load ptr, ptr %9, align 8
  %62 = getelementptr inbounds nuw %struct.PCIDevice, ptr %61, i32 0, i32 11
  %63 = load i32, ptr %11, align 4
  %64 = sext i32 %63 to i64
  %65 = getelementptr inbounds [7 x %struct.PCIIORegion], ptr %62, i64 0, i64 %64
  %66 = getelementptr inbounds nuw %struct.PCIIORegion, ptr %65, i32 0, i32 0
  %67 = load i64, ptr %66, align 8
  %68 = icmp ne i64 %60, %67
  br i1 %68, label %69, label %93

69:                                               ; preds = %56
  %70 = load ptr, ptr %6, align 8
  %71 = getelementptr inbounds nuw %struct.VFIOPCIDevice, ptr %70, i32 0, i32 14
  %72 = load i32, ptr %11, align 4
  %73 = sext i32 %72 to i64
  %74 = getelementptr inbounds [6 x %struct.VFIOBAR], ptr %71, i64 0, i64 %73
  %75 = getelementptr inbounds nuw %struct.VFIOBAR, ptr %74, i32 0, i32 0
  %76 = getelementptr inbounds nuw %struct.VFIORegion, ptr %75, i32 0, i32 3
  %77 = load i64, ptr %76, align 8
  %78 = icmp ugt i64 %77, 0
  br i1 %78, label %79, label %93

79:                                               ; preds = %69
  %80 = load ptr, ptr %6, align 8
  %81 = getelementptr inbounds nuw %struct.VFIOPCIDevice, ptr %80, i32 0, i32 14
  %82 = load i32, ptr %11, align 4
  %83 = sext i32 %82 to i64
  %84 = getelementptr inbounds [6 x %struct.VFIOBAR], ptr %81, i64 0, i64 %83
  %85 = getelementptr inbounds nuw %struct.VFIOBAR, ptr %84, i32 0, i32 0
  %86 = getelementptr inbounds nuw %struct.VFIORegion, ptr %85, i32 0, i32 3
  %87 = load i64, ptr %86, align 8
  %88 = call i64 @qemu_real_host_page_size()
  %89 = icmp ult i64 %87, %88
  br i1 %89, label %90, label %93

90:                                               ; preds = %79
  %91 = load ptr, ptr %9, align 8
  %92 = load i32, ptr %11, align 4
  call void @vfio_sub_page_bar_update_mapping(ptr noundef %91, i32 noundef %92)
  br label %93

93:                                               ; preds = %90, %79, %69, %56
  br label %94

94:                                               ; preds = %93
  %95 = load i32, ptr %11, align 4
  %96 = add i32 %95, 1
  store i32 %96, ptr %11, align 4
  br label %53, !llvm.loop !21

97:                                               ; preds = %53
  %98 = load ptr, ptr %9, align 8
  %99 = call zeroext i1 @msi_enabled(ptr noundef %98)
  br i1 %99, label %100, label %102

100:                                              ; preds = %97
  %101 = load ptr, ptr %6, align 8
  call void @vfio_msi_enable(ptr noundef %101)
  br label %109

102:                                              ; preds = %97
  %103 = load ptr, ptr %9, align 8
  %104 = call i32 @msix_enabled(ptr noundef %103)
  %105 = icmp ne i32 %104, 0
  br i1 %105, label %106, label %108

106:                                              ; preds = %102
  %107 = load ptr, ptr %6, align 8
  call void @vfio_msix_enable(ptr noundef %107)
  br label %108

108:                                              ; preds = %106, %102
  br label %109

109:                                              ; preds = %108, %100
  %110 = load i32, ptr %12, align 4
  store i32 %110, ptr %3, align 4
  store i32 1, ptr %13, align 4
  br label %111

111:                                              ; preds = %109, %43
  call void @llvm.lifetime.end.p0(i64 4, ptr %12) #19
  call void @llvm.lifetime.end.p0(i64 4, ptr %11) #19
  call void @llvm.lifetime.end.p0(i64 48, ptr %10) #19
  call void @llvm.lifetime.end.p0(i64 8, ptr %9) #19
  call void @llvm.lifetime.end.p0(i64 8, ptr %6) #19
  %112 = load i32, ptr %3, align 4
  ret i32 %112
}