; Function Attrs: nounwind sspstrong uwtable
define internal i32 @vfio_pci_load_config(ptr noundef %0, ptr noundef %1) #0 {
  %3 = alloca [6 x i64], align 16
  call void @llvm.lifetime.start.p0(i64 48, ptr nonnull %3) #26
  call void @llvm.memset.p0.i64(ptr noundef nonnull align 16 dereferenceable(48) %3, i8 0, i64 48, i1 false), !annotation !4
  %4 = getelementptr inbounds i8, ptr %0, i64 -2464
  br label %5

5:                                                ; preds = %2, %5
  %indvars.iv = phi i64 [ 0, %2 ], [ %indvars.iv.next, %5 ]
  %6 = getelementptr inbounds nuw [7 x %struct.PCIIORegion], ptr %4, i64 0, i64 %indvars.iv
  %7 = load i64, ptr %6, align 8
  %8 = getelementptr inbounds nuw [6 x i64], ptr %3, i64 0, i64 %indvars.iv
  store i64 %7, ptr %8, align 8
  %indvars.iv.next = add nuw nsw i64 %indvars.iv, 1
  %exitcond.not = icmp eq i64 %indvars.iv.next, 6
  br i1 %exitcond.not, label %9, label %5, !llvm.loop !28

9:                                                ; preds = %5
  %10 = getelementptr inbounds i8, ptr %0, i64 -2752
  %11 = tail call i32 @vmstate_load_state(ptr noundef %1, ptr noundef nonnull @vmstate_vfio_pci_config, ptr noundef nonnull %10, i32 noundef 1) #26
  %.not = icmp eq i32 %11, 0
  br i1 %.not, label %12, label %39

12:                                               ; preds = %9
  %13 = getelementptr inbounds i8, ptr %0, i64 -2592
  %14 = load ptr, ptr %13, align 16
  %15 = getelementptr inbounds nuw i8, ptr %14, i64 4
  %.val = load i16, ptr %15, align 1
  %16 = zext i16 %.val to i32
  tail call void @vfio_pci_write_config(ptr noundef nonnull %10, i32 noundef 4, i32 noundef %16, i32 noundef 2)
  %17 = getelementptr i8, ptr %0, i64 368
  br label %18

18:                                               ; preds = %12, %32
  %indvars.iv39 = phi i64 [ 0, %12 ], [ %indvars.iv.next40, %32 ]
  %19 = getelementptr inbounds nuw [6 x i64], ptr %3, i64 0, i64 %indvars.iv39
  %20 = load i64, ptr %19, align 8
  %21 = getelementptr inbounds nuw [7 x %struct.PCIIORegion], ptr %4, i64 0, i64 %indvars.iv39
  %22 = load i64, ptr %21, align 8
  %.not34 = icmp eq i64 %20, %22
  br i1 %.not34, label %32, label %23

23:                                               ; preds = %18
  %.idx = mul nuw nsw i64 %indvars.iv39, 88
  %24 = getelementptr i8, ptr %17, i64 %.idx
  %25 = load i64, ptr %24, align 8
  %.not35 = icmp eq i64 %25, 0
  br i1 %.not35, label %32, label %26

26:                                               ; preds = %23
  %27 = tail call i32 @getpagesize() #28
  %28 = sext i32 %27 to i64
  %29 = icmp ult i64 %25, %28
  br i1 %29, label %30, label %32

30:                                               ; preds = %26
  %31 = trunc nuw nsw i64 %indvars.iv39 to i32
  tail call fastcc void @vfio_sub_page_bar_update_mapping(ptr noundef nonnull %10, i32 noundef %31)
  br label %32

32:                                               ; preds = %18, %23, %26, %30
  %indvars.iv.next40 = add nuw nsw i64 %indvars.iv39, 1
  %exitcond42.not = icmp eq i64 %indvars.iv.next40, 6
  br i1 %exitcond42.not, label %33, label %18, !llvm.loop !29

33:                                               ; preds = %32
  %34 = tail call zeroext i1 @msi_enabled(ptr noundef nonnull %10) #26
  br i1 %34, label %35, label %36

35:                                               ; preds = %33
  tail call fastcc void @vfio_msi_enable(ptr noundef nonnull %10)
  br label %39

36:                                               ; preds = %33
  %37 = tail call i32 @msix_enabled(ptr noundef nonnull %10) #26
  %.not33 = icmp eq i32 %37, 0
  br i1 %.not33, label %39, label %38

38:                                               ; preds = %36
  tail call fastcc void @vfio_msix_enable(ptr noundef nonnull %10)
  br label %39

39:                                               ; preds = %35, %38, %36, %9
  call void @llvm.lifetime.end.p0(i64 48, ptr nonnull %3) #26
  ret i32 %11
}